(iorgoStructure
Molecule
p1
(dp2
S'atoms'
p3
(lp4
(iorgoStructure
Atom
p5
(dp6
S'neighbors'
p7
(dp8
(iorgoStructure
Atom
p9
(dp10
g7
(dp11
(iorgoStructure
Atom
p12
(dp13
g7
(dp14
g9
I1
ssS'flag'
p15
I0
sS'element'
p16
S'Cl'
p17
sS'charge'
p18
I0
sS'nRead'
p19
I0
sS'nonHNeighbors'
p20
(lp21
sS'parentAtom'
p22
I0
sS'rAtom'
p23
I0
sS'rflag'
p24
I0
sbI1
s(iorgoStructure
Atom
p25
(dp26
g7
(dp27
g9
I1
ssg15
I0
sg16
S'Br'
p28
sg18
I0
sg19
I0
sg20
(lp29
sg22
I0
sg23
I0
sg24
I0
sbI1
sg5
I1
s(iorgoStructure
Atom
p30
(dp31
g7
(dp32
g9
I1
ssg15
I0
sg16
S'C'
sg18
I0
sg19
I0
sg20
(lp33
sg22
I0
sg23
I0
sg24
I0
sbI1
ssS'chiralD'
p34
g12
sg20
(lp35
sS'chiralB'
p36
g25
sS'chiralC'
p37
g12
sg16
S'C'
sg18
I0
sg19
I0
sg22
I0
sg15
I0
sS'chiralA'
p38
g5
sg23
I0
sg24
I0
sbI1
s(iorgoStructure
Atom
p39
(dp40
g7
(dp41
g5
I1
ssg15
I0
sg16
g17
sg18
I0
sg19
I0
sg20
(lp42
sg22
I0
sg23
I0
sg24
I0
sbI1
s(iorgoStructure
Atom
p43
(dp44
g7
(dp45
g5
I1
ssg15
I0
sg16
S'C'
sg18
I0
sg19
I0
sg20
(lp46
sg22
I0
sg23
I0
sg24
I0
sbI1
s(iorgoStructure
Atom
p47
(dp48
g7
(dp49
g5
I1
ssg15
I0
sg16
S'O'
sg18
I0
sg19
I0
sg20
(lp50
sg22
I0
sg23
I0
sg24
I0
sbI1
ssg34
g39
sg20
(lp51
sg36
g47
sg37
g39
sg16
S'C'
sg18
I0
sg19
I0
sg22
I0
sg15
I0
sg38
g9
sg23
I0
sg24
I0
sbag9
ag30
ag43
ag39
ag12
ag47
ag25
asb.